; Function Attrs: mustprogress nounwind uwtable
define dso_local void @_ZN5clang27MultiplexExternalSemaSource25ReadPendingInstantiationsERN4llvm15SmallVectorImplISt4pairIPNS_9ValueDeclENS_14SourceLocationEEEE(ptr noundef nonnull align 8 dereferenceable(48) %0, ptr noundef nonnull align 8 dereferenceable(16) %1) unnamed_addr #0 align 2 {
  %3 = getelementptr inbounds nuw i8, ptr %0, i64 16
  %4 = tail call noundef i64 @_ZNK4llvm15SmallVectorBaseIjE4sizeEv(ptr noundef nonnull align 8 dereferenceable(16) %3) #6
  %.not = icmp eq i64 %4, 0
  br i1 %.not, label %._crit_edge, label %.lr.ph

.lr.ph:                                           ; preds = %2, %.lr.ph
  %.04 = phi i64 [ %11, %.lr.ph ], [ 0, %2 ]
  %5 = load ptr, ptr %3, align 8
  %6 = getelementptr inbounds ptr, ptr %5, i64 %.04
  %7 = load ptr, ptr %6, align 8
  %8 = load ptr, ptr %7, align 8
  %9 = getelementptr inbounds i8, ptr %8, i64 344
  %10 = load ptr, ptr %9, align 8
  tail call void %10(ptr noundef nonnull align 8 dereferenceable(16) %7, ptr noundef nonnull align 8 dereferenceable(16) %1) #6
  %11 = add nuw i64 %.04, 1
  %12 = tail call noundef i64 @_ZNK4llvm15SmallVectorBaseIjE4sizeEv(ptr noundef nonnull align 8 dereferenceable(16) %3) #6
  %13 = icmp ult i64 %11, %12
  br i1 %13, label %.lr.ph, label %._crit_edge, !llvm.loop !41

._crit_edge:                                      ; preds = %.lr.ph, %2
  ret void
}